target datalayout = "e-m:e-p270:32:32-p271:32:32-p272:64:64-i64:64-i128:128-f80:128-n8:16:32:64-S128"
target triple = "x86_64-pc-linux-gnu"

%struct.b2Circle = type { %struct.b2Vec2, float }
%struct.b2Vec2 = type { float, float }
%struct.b2BodyId = type { i32, i16, i16 }
%struct.b2JointId = type { i32, i16, i16 }
%struct.b2Rot = type { float, float }
%struct.b2WorldId = type { i16, i16 }
%struct.b2ShapeDef = type { ptr, float, float, float, float, i32, float, %struct.b2Filter, i32, i8, i8, i8, i8, i8, i8, i32 }
%struct.b2Filter = type { i64, i64, i32 }
%struct.b2RevoluteJointDef = type { %struct.b2BodyId, %struct.b2BodyId, %struct.b2Vec2, %struct.b2Vec2, float, i8, float, float, i8, float, float, i8, float, float, float, i8, ptr, i32 }
%struct.b2BodyDef = type { i32, %struct.b2Vec2, %struct.b2Rot, %struct.b2Vec2, float, float, float, float, float, ptr, ptr, i8, i8, i8, i8, i8, i8, i32 }
%struct.b2ShapeId = type { i32, i16, i16 }

@__const.CreateJointGrid.circle = private unnamed_addr constant %struct.b2Circle { %struct.b2Vec2 zeroinitializer, float 0x3FD99999A0000000 }, align 4

; Function Attrs: nounwind uwtable
define void @CreateJointGrid(i32 %0) #0 {
  %2 = alloca %struct.b2WorldId, align 2
  %3 = alloca i32, align 4
  %4 = alloca ptr, align 8
  %5 = alloca i32, align 4
  %6 = alloca %struct.b2ShapeDef, align 8
  %7 = alloca %struct.b2Circle, align 4
  %8 = alloca %struct.b2RevoluteJointDef, align 8
  %9 = alloca %struct.b2BodyDef, align 8
  %10 = alloca i32, align 4
  %11 = alloca i32, align 4
  %12 = alloca i32, align 4
  %13 = alloca float, align 4
  %14 = alloca float, align 4
  %15 = alloca %struct.b2Vec2, align 4
  %16 = alloca %struct.b2BodyId, align 4
  %17 = alloca %struct.b2ShapeId, align 4
  %18 = alloca %struct.b2Vec2, align 4
  %19 = alloca %struct.b2Vec2, align 4
  %20 = alloca %struct.b2JointId, align 4
  %21 = alloca %struct.b2Vec2, align 4
  %22 = alloca %struct.b2Vec2, align 4
  %23 = alloca %struct.b2JointId, align 4
  store i32 %0, ptr %2, align 2
  %24 = load i32, ptr %2, align 2
  call void @b2World_EnableSleeping(i32 %24, i1 noundef zeroext false)
  call void @llvm.lifetime.start.p0(i64 4, ptr %3) #9
  store i32 100, ptr %3, align 4, !tbaa !3
  call void @llvm.lifetime.start.p0(i64 8, ptr %4) #9
  %25 = load i32, ptr %3, align 4, !tbaa !3
  %26 = load i32, ptr %3, align 4, !tbaa !3
  %27 = mul nsw i32 %25, %26
  %28 = sext i32 %27 to i64
  %29 = mul i64 %28, 8
  %30 = call noalias ptr @malloc(i64 noundef %29) #10
  store ptr %30, ptr %4, align 8, !tbaa !7
  call void @llvm.lifetime.start.p0(i64 4, ptr %5) #9
  store i32 0, ptr %5, align 4, !tbaa !3
  call void @llvm.lifetime.start.p0(i64 72, ptr %6) #9
  call void @b2DefaultShapeDef(ptr dead_on_unwind writable sret(%struct.b2ShapeDef) align 8 %6)
  %31 = getelementptr inbounds nuw %struct.b2ShapeDef, ptr %6, i32 0, i32 6
  store float 1.000000e+00, ptr %31, align 4, !tbaa !10
  %32 = getelementptr inbounds nuw %struct.b2ShapeDef, ptr %6, i32 0, i32 7
  %33 = getelementptr inbounds nuw %struct.b2Filter, ptr %32, i32 0, i32 0
  store i64 2, ptr %33, align 8, !tbaa !16
  %34 = getelementptr inbounds nuw %struct.b2ShapeDef, ptr %6, i32 0, i32 7
  %35 = getelementptr inbounds nuw %struct.b2Filter, ptr %34, i32 0, i32 1
  store i64 4294967293, ptr %35, align 8, !tbaa !17
  call void @llvm.lifetime.start.p0(i64 12, ptr %7) #9
  call void @llvm.memcpy.p0.p0.i64(ptr align 4 %7, ptr align 4 @__const.CreateJointGrid.circle, i64 12, i1 false)
  call void @llvm.lifetime.start.p0(i64 96, ptr %8) #9
  call void @b2DefaultRevoluteJointDef(ptr dead_on_unwind writable sret(%struct.b2RevoluteJointDef) align 8 %8)
  call void @llvm.lifetime.start.p0(i64 80, ptr %9) #9
  call void @b2DefaultBodyDef(ptr dead_on_unwind writable sret(%struct.b2BodyDef) align 8 %9)
  call void @llvm.lifetime.start.p0(i64 4, ptr %10) #9
  store i32 0, ptr %10, align 4, !tbaa !3
  br label %36

36:                                               ; preds = %129, %1
  %37 = load i32, ptr %10, align 4, !tbaa !3
  %38 = load i32, ptr %3, align 4, !tbaa !3
  %39 = icmp slt i32 %37, %38
  br i1 %39, label %41, label %40

40:                                               ; preds = %36
  store i32 2, ptr %11, align 4
  call void @llvm.lifetime.end.p0(i64 4, ptr %10) #9
  br label %132

41:                                               ; preds = %36
  call void @llvm.lifetime.start.p0(i64 4, ptr %12) #9
  store i32 0, ptr %12, align 4, !tbaa !3
  br label %42

42:                                               ; preds = %125, %41
  %43 = load i32, ptr %12, align 4, !tbaa !3
  %44 = load i32, ptr %3, align 4, !tbaa !3
  %45 = icmp slt i32 %43, %44
  br i1 %45, label %47, label %46

46:                                               ; preds = %42
  store i32 5, ptr %11, align 4
  call void @llvm.lifetime.end.p0(i64 4, ptr %12) #9
  br label %128

47:                                               ; preds = %42
  call void @llvm.lifetime.start.p0(i64 4, ptr %13) #9
  %48 = load i32, ptr %10, align 4, !tbaa !3
  %49 = sitofp i32 %48 to float
  store float %49, ptr %13, align 4, !tbaa !18
  call void @llvm.lifetime.start.p0(i64 4, ptr %14) #9
  %50 = load i32, ptr %12, align 4, !tbaa !3
  %51 = sitofp i32 %50 to float
  store float %51, ptr %14, align 4, !tbaa !18
  %52 = load i32, ptr %10, align 4, !tbaa !3
  %53 = load i32, ptr %3, align 4, !tbaa !3
  %54 = sdiv i32 %53, 2
  %55 = sub nsw i32 %54, 3
  %56 = icmp sge i32 %52, %55
  br i1 %56, label %57, label %68

57:                                               ; preds = %47
  %58 = load i32, ptr %10, align 4, !tbaa !3
  %59 = load i32, ptr %3, align 4, !tbaa !3
  %60 = sdiv i32 %59, 2
  %61 = add nsw i32 %60, 3
  %62 = icmp sle i32 %58, %61
  br i1 %62, label %63, label %68

63:                                               ; preds = %57
  %64 = load i32, ptr %12, align 4, !tbaa !3
  %65 = icmp eq i32 %64, 0
  br i1 %65, label %66, label %68

66:                                               ; preds = %63
  %67 = getelementptr inbounds nuw %struct.b2BodyDef, ptr %9, i32 0, i32 0
  store i32 0, ptr %67, align 8, !tbaa !19
  br label %70

68:                                               ; preds = %63, %57, %47
  %69 = getelementptr inbounds nuw %struct.b2BodyDef, ptr %9, i32 0, i32 0
  store i32 2, ptr %69, align 8, !tbaa !19
  br label %70

70:                                               ; preds = %68, %66
  %71 = getelementptr inbounds nuw %struct.b2BodyDef, ptr %9, i32 0, i32 1
  %72 = getelementptr inbounds nuw %struct.b2Vec2, ptr %15, i32 0, i32 0
  %73 = load float, ptr %13, align 4, !tbaa !18
  store float %73, ptr %72, align 4, !tbaa !24
  %74 = getelementptr inbounds nuw %struct.b2Vec2, ptr %15, i32 0, i32 1
  %75 = load float, ptr %14, align 4, !tbaa !18
  %76 = fneg float %75
  store float %76, ptr %74, align 4, !tbaa !25
  call void @llvm.memcpy.p0.p0.i64(ptr align 4 %71, ptr align 4 %15, i64 8, i1 false), !tbaa.struct !26
  call void @llvm.lifetime.start.p0(i64 8, ptr %16) #9
  %77 = load i32, ptr %2, align 2
  %78 = call i64 @b2CreateBody(i32 %77, ptr noundef %9)
  store i64 %78, ptr %16, align 4
  %79 = load i64, ptr %16, align 4
  %80 = call i64 @b2CreateCircleShape(i64 %79, ptr noundef %6, ptr noundef %7)
  store i64 %80, ptr %17, align 4
  %81 = load i32, ptr %12, align 4, !tbaa !3
  %82 = icmp sgt i32 %81, 0
  br i1 %82, label %83, label %99

83:                                               ; preds = %70
  %84 = getelementptr inbounds nuw %struct.b2RevoluteJointDef, ptr %8, i32 0, i32 0
  %85 = load ptr, ptr %4, align 8, !tbaa !7
  %86 = load i32, ptr %5, align 4, !tbaa !3
  %87 = sub nsw i32 %86, 1
  %88 = sext i32 %87 to i64
  %89 = getelementptr inbounds %struct.b2BodyId, ptr %85, i64 %88
  call void @llvm.memcpy.p0.p0.i64(ptr align 8 %84, ptr align 4 %89, i64 8, i1 false), !tbaa.struct !27
  %90 = getelementptr inbounds nuw %struct.b2RevoluteJointDef, ptr %8, i32 0, i32 1
  call void @llvm.memcpy.p0.p0.i64(ptr align 8 %90, ptr align 4 %16, i64 8, i1 false), !tbaa.struct !27
  %91 = getelementptr inbounds nuw %struct.b2RevoluteJointDef, ptr %8, i32 0, i32 2
  %92 = getelementptr inbounds nuw %struct.b2Vec2, ptr %18, i32 0, i32 0
  store float 0.000000e+00, ptr %92, align 4, !tbaa !24
  %93 = getelementptr inbounds nuw %struct.b2Vec2, ptr %18, i32 0, i32 1
  store float -5.000000e-01, ptr %93, align 4, !tbaa !25
  call void @llvm.memcpy.p0.p0.i64(ptr align 8 %91, ptr align 4 %18, i64 8, i1 false), !tbaa.struct !26
  %94 = getelementptr inbounds nuw %struct.b2RevoluteJointDef, ptr %8, i32 0, i32 3
  %95 = getelementptr inbounds nuw %struct.b2Vec2, ptr %19, i32 0, i32 0
  store float 0.000000e+00, ptr %95, align 4, !tbaa !24
  %96 = getelementptr inbounds nuw %struct.b2Vec2, ptr %19, i32 0, i32 1
  store float 5.000000e-01, ptr %96, align 4, !tbaa !25
  call void @llvm.memcpy.p0.p0.i64(ptr align 8 %94, ptr align 4 %19, i64 8, i1 false), !tbaa.struct !26
  %97 = load i32, ptr %2, align 2
  %98 = call i64 @b2CreateRevoluteJoint(i32 %97, ptr noundef %8)
  store i64 %98, ptr %20, align 4
  br label %99

99:                                               ; preds = %83, %70
  %100 = load i32, ptr %10, align 4, !tbaa !3
  %101 = icmp sgt i32 %100, 0
  br i1 %101, label %102, label %119

102:                                              ; preds = %99
  %103 = getelementptr inbounds nuw %struct.b2RevoluteJointDef, ptr %8, i32 0, i32 0
  %104 = load ptr, ptr %4, align 8, !tbaa !7
  %105 = load i32, ptr %5, align 4, !tbaa !3
  %106 = load i32, ptr %3, align 4, !tbaa !3
  %107 = sub nsw i32 %105, %106
  %108 = sext i32 %107 to i64
  %109 = getelementptr inbounds %struct.b2BodyId, ptr %104, i64 %108
  call void @llvm.memcpy.p0.p0.i64(ptr align 8 %103, ptr align 4 %109, i64 8, i1 false), !tbaa.struct !27
  %110 = getelementptr inbounds nuw %struct.b2RevoluteJointDef, ptr %8, i32 0, i32 1
  call void @llvm.memcpy.p0.p0.i64(ptr align 8 %110, ptr align 4 %16, i64 8, i1 false), !tbaa.struct !27
  %111 = getelementptr inbounds nuw %struct.b2RevoluteJointDef, ptr %8, i32 0, i32 2
  %112 = getelementptr inbounds nuw %struct.b2Vec2, ptr %21, i32 0, i32 0
  store float 5.000000e-01, ptr %112, align 4, !tbaa !24
  %113 = getelementptr inbounds nuw %struct.b2Vec2, ptr %21, i32 0, i32 1
  store float 0.000000e+00, ptr %113, align 4, !tbaa !25
  call void @llvm.memcpy.p0.p0.i64(ptr align 8 %111, ptr align 4 %21, i64 8, i1 false), !tbaa.struct !26
  %114 = getelementptr inbounds nuw %struct.b2RevoluteJointDef, ptr %8, i32 0, i32 3
  %115 = getelementptr inbounds nuw %struct.b2Vec2, ptr %22, i32 0, i32 0
  store float -5.000000e-01, ptr %115, align 4, !tbaa !24
  %116 = getelementptr inbounds nuw %struct.b2Vec2, ptr %22, i32 0, i32 1
  store float 0.000000e+00, ptr %116, align 4, !tbaa !25
  call void @llvm.memcpy.p0.p0.i64(ptr align 8 %114, ptr align 4 %22, i64 8, i1 false), !tbaa.struct !26
  %117 = load i32, ptr %2, align 2
  %118 = call i64 @b2CreateRevoluteJoint(i32 %117, ptr noundef %8)
  store i64 %118, ptr %23, align 4
  br label %119

119:                                              ; preds = %102, %99
  %120 = load ptr, ptr %4, align 8, !tbaa !7
  %121 = load i32, ptr %5, align 4, !tbaa !3
  %122 = add nsw i32 %121, 1
  store i32 %122, ptr %5, align 4, !tbaa !3
  %123 = sext i32 %121 to i64
  %124 = getelementptr inbounds %struct.b2BodyId, ptr %120, i64 %123
  call void @llvm.memcpy.p0.p0.i64(ptr align 4 %124, ptr align 4 %16, i64 8, i1 false), !tbaa.struct !27
  call void @llvm.lifetime.end.p0(i64 8, ptr %16) #9
  call void @llvm.lifetime.end.p0(i64 4, ptr %14) #9
  call void @llvm.lifetime.end.p0(i64 4, ptr %13) #9
  br label %125

125:                                              ; preds = %119
  %126 = load i32, ptr %12, align 4, !tbaa !3
  %127 = add nsw i32 %126, 1
  store i32 %127, ptr %12, align 4, !tbaa !3
  br label %42, !llvm.loop !30

128:                                              ; preds = %46
  br label %129

129:                                              ; preds = %128
  %130 = load i32, ptr %10, align 4, !tbaa !3
  %131 = add nsw i32 %130, 1
  store i32 %131, ptr %10, align 4, !tbaa !3
  br label %36, !llvm.loop !32

132:                                              ; preds = %40
  %133 = load ptr, ptr %4, align 8, !tbaa !7
  call void @free(ptr noundef %133) #9
  call void @llvm.lifetime.end.p0(i64 80, ptr %9) #9
  call void @llvm.lifetime.end.p0(i64 96, ptr %8) #9
  call void @llvm.lifetime.end.p0(i64 12, ptr %7) #9
  call void @llvm.lifetime.end.p0(i64 72, ptr %6) #9
  call void @llvm.lifetime.end.p0(i64 4, ptr %5) #9
  call void @llvm.lifetime.end.p0(i64 8, ptr %4) #9
  call void @llvm.lifetime.end.p0(i64 4, ptr %3) #9
  ret void
}